target datalayout = "e-m:e-p270:32:32-p271:32:32-p272:64:64-i64:64-i128:128-f80:128-n8:16:32:64-S128"
target triple = "x86_64-unknown-linux-gnu"

%"class.v8::IndirectHandleBase" = type { ptr }
%"class.v8::Local.371" = type { %"class.v8::LocalBase.372" }
%"class.v8::LocalBase.372" = type { %"class.v8::IndirectHandleBase" }
%"class.v8::ReturnValue" = type { ptr }

; Function Attrs: mustprogress nounwind uwtable
define dso_local void @_ZN4node5http212PackSettingsERKN2v820FunctionCallbackInfoINS1_5ValueEEE(ptr noundef nonnull align 8 dereferenceable(20) %args) #4 {
entry:
  %this.addr.i16 = alloca ptr, align 8
  %isolate.addr.i.i = alloca ptr, align 8
  %index.addr.i.i = alloca i32, align 4
  %addr.i.i = alloca i64, align 8
  %isolate.addr.i = alloca ptr, align 8
  %index.addr.i = alloca i32, align 4
  %this.addr.i14 = alloca ptr, align 8
  %this.addr.i12 = alloca ptr, align 8
  %this.addr.i10 = alloca ptr, align 8
  %slot.addr.i = alloca ptr, align 8
  %this.addr.i.i = alloca ptr, align 8
  %handle.i = alloca %"class.v8::Local.371", align 8
  %this.addr.i9 = alloca ptr, align 8
  %retval.i = alloca %"class.v8::ReturnValue", align 8
  %this.addr.i = alloca ptr, align 8
  %args.addr = alloca ptr, align 8
  %state = alloca ptr, align 8
  %ref.tmp = alloca %"class.v8::ReturnValue", align 8
  %agg.tmp = alloca %"class.v8::Local.371", align 8
  store ptr %args, ptr %args.addr, align 8
  %0 = load ptr, ptr %args.addr, align 8
  %call = call noundef ptr @_ZN4node5Realm14GetBindingDataINS_5http210Http2StateEEEPT_RKN2v820FunctionCallbackInfoINS6_5ValueEEE(ptr noundef nonnull align 8 dereferenceable(20) %0)
  store ptr %call, ptr %state, align 8
  %1 = load ptr, ptr %args.addr, align 8
  store ptr %1, ptr %this.addr.i, align 8
  %this1.i = load ptr, ptr %this.addr.i, align 8
  %2 = load ptr, ptr %this1.i, align 8
  %arrayidx.i = getelementptr inbounds i64, ptr %2, i64 3
  store ptr %retval.i, ptr %this.addr.i10, align 8
  store ptr %arrayidx.i, ptr %slot.addr.i, align 8
  %this1.i11 = load ptr, ptr %this.addr.i10, align 8
  %3 = load ptr, ptr %slot.addr.i, align 8
  store ptr %3, ptr %this1.i11, align 8
  %4 = load ptr, ptr %retval.i, align 8
  %coerce.dive = getelementptr inbounds %"class.v8::ReturnValue", ptr %ref.tmp, i32 0, i32 0
  store ptr %4, ptr %coerce.dive, align 8
  %5 = load ptr, ptr %state, align 8
  %call2 = call ptr @_ZN4node5http213Http2Settings4PackEPNS0_10Http2StateE(ptr noundef %5)
  %coerce.dive3 = getelementptr inbounds %"class.v8::Local.371", ptr %agg.tmp, i32 0, i32 0
  %coerce.dive4 = getelementptr inbounds %"class.v8::LocalBase.372", ptr %coerce.dive3, i32 0, i32 0
  %coerce.dive5 = getelementptr inbounds %"class.v8::IndirectHandleBase", ptr %coerce.dive4, i32 0, i32 0
  store ptr %call2, ptr %coerce.dive5, align 8
  %coerce.dive6 = getelementptr inbounds %"class.v8::Local.371", ptr %agg.tmp, i32 0, i32 0
  %coerce.dive7 = getelementptr inbounds %"class.v8::LocalBase.372", ptr %coerce.dive6, i32 0, i32 0
  %coerce.dive8 = getelementptr inbounds %"class.v8::IndirectHandleBase", ptr %coerce.dive7, i32 0, i32 0
  %6 = load ptr, ptr %coerce.dive8, align 8
  store ptr %6, ptr %handle.i, align 8
  store ptr %ref.tmp, ptr %this.addr.i9, align 8
  %this3.i = load ptr, ptr %this.addr.i9, align 8
  store ptr %handle.i, ptr %this.addr.i.i, align 8
  %this1.i.i = load ptr, ptr %this.addr.i.i, align 8
  %7 = load ptr, ptr %this1.i.i, align 8
  %cmp.i.i = icmp eq ptr %7, null
  br i1 %cmp.i.i, label %if.then.i, label %if.else.i

if.then.i:                                        ; preds = %entry
  store ptr %this3.i, ptr %this.addr.i12, align 8
  %this1.i13 = load ptr, ptr %this.addr.i12, align 8
  store ptr %this1.i13, ptr %this.addr.i16, align 8
  %this1.i17 = load ptr, ptr %this.addr.i16, align 8
  %8 = load ptr, ptr %this1.i17, align 8
  %arrayidx.i18 = getelementptr inbounds i64, ptr %8, i64 -2
  %9 = load ptr, ptr %arrayidx.i18, align 8
  store ptr %9, ptr %isolate.addr.i, align 8
  store i32 5, ptr %index.addr.i, align 4
  %10 = load ptr, ptr %isolate.addr.i, align 8
  %11 = load i32, ptr %index.addr.i, align 4
  store ptr %10, ptr %isolate.addr.i.i, align 8
  store i32 %11, ptr %index.addr.i.i, align 4
  %12 = load ptr, ptr %isolate.addr.i.i, align 8
  %13 = ptrtoint ptr %12 to i64
  %add.i.i = add i64 %13, 576
  %14 = load i32, ptr %index.addr.i.i, align 4
  %mul.i.i = mul nsw i32 %14, 8
  %conv.i.i = sext i32 %mul.i.i to i64
  %add1.i.i = add i64 %add.i.i, %conv.i.i
  store i64 %add1.i.i, ptr %addr.i.i, align 8
  %15 = load i64, ptr %addr.i.i, align 8
  %16 = inttoptr i64 %15 to ptr
  %17 = load i64, ptr %16, align 8
  %18 = load ptr, ptr %this3.i, align 8
  store i64 %17, ptr %18, align 8
  br label %_ZN2v811ReturnValueINS_5ValueEE3SetIS1_EEvNS_5LocalIT_EE.exit

if.else.i:                                        ; preds = %entry
  store ptr %handle.i, ptr %this.addr.i14, align 8
  %this1.i15 = load ptr, ptr %this.addr.i14, align 8
  %19 = load ptr, ptr %this1.i15, align 8
  %20 = load i64, ptr %19, align 8
  %21 = load ptr, ptr %this3.i, align 8
  store i64 %20, ptr %21, align 8
  br label %_ZN2v811ReturnValueINS_5ValueEE3SetIS1_EEvNS_5LocalIT_EE.exit

_ZN2v811ReturnValueINS_5ValueEE3SetIS1_EEvNS_5LocalIT_EE.exit: ; preds = %if.else.i, %if.then.i
  ret void
}