; Function Attrs: mustprogress nounwind uwtable
define dso_local void @_ZN4node5http212PackSettingsERKN2v820FunctionCallbackInfoINS1_5ValueEEE(ptr noundef nonnull align 8 dereferenceable(20) %args) #4 {
entry:
  %call = tail call noundef ptr @_ZN4node5Realm14GetBindingDataINS_5http210Http2StateEEEPT_RKN2v820FunctionCallbackInfoINS6_5ValueEEE(ptr noundef nonnull align 8 dereferenceable(20) %args)
  %0 = load ptr, ptr %args, align 8
  %call2 = tail call ptr @_ZN4node5http213Http2Settings4PackEPNS0_10Http2StateE(ptr noundef %call)
  %cmp.i.i = icmp eq ptr %call2, null
  br i1 %cmp.i.i, label %if.then.i, label %_ZN2v811ReturnValueINS_5ValueEE3SetIS1_EEvNS_5LocalIT_EE.exit

if.then.i:                                        ; preds = %entry
  %arrayidx.i18 = getelementptr inbounds i8, ptr %0, i64 8
  %1 = load ptr, ptr %arrayidx.i18, align 8
  %2 = ptrtoint ptr %1 to i64
  %add1.i.i = add i64 %2, 616
  %3 = inttoptr i64 %add1.i.i to ptr
  br label %_ZN2v811ReturnValueINS_5ValueEE3SetIS1_EEvNS_5LocalIT_EE.exit

_ZN2v811ReturnValueINS_5ValueEE3SetIS1_EEvNS_5LocalIT_EE.exit: ; preds = %entry, %if.then.i
  %storemerge.in = phi ptr [ %3, %if.then.i ], [ %call2, %entry ]
  %arrayidx.i = getelementptr inbounds i8, ptr %0, i64 24
  %storemerge = load i64, ptr %storemerge.in, align 8
  store i64 %storemerge, ptr %arrayidx.i, align 8
  ret void
}